target datalayout = "e-m:e-p270:32:32-p271:32:32-p272:64:64-i64:64-i128:128-f80:128-n8:16:32:64-S128"
target triple = "x86_64-unknown-linux-gnu"

%"class.Assimp::XFileParser" = type { i32, i32, i8, i32, i32, ptr, ptr, i32, ptr }

; Function Attrs: mustprogress nounwind uwtable
define hidden noundef i32 @_ZN6Assimp11XFileParser12ReadBinDWordEv(ptr noundef nonnull align 8 dereferenceable(56) %this) #0 align 2 {
entry:
  %this.addr = alloca ptr, align 8
  %q = alloca ptr, align 8
  %tmp = alloca i32, align 4
  store ptr %this, ptr %this.addr, align 8
  %this1 = load ptr, ptr %this.addr, align 8
  %mP = getelementptr inbounds %"class.Assimp::XFileParser", ptr %this1, i32 0, i32 5
  %0 = load ptr, ptr %mP, align 8
  store ptr %0, ptr %q, align 8
  %1 = load ptr, ptr %q, align 8
  %arrayidx = getelementptr inbounds i8, ptr %1, i64 0
  %2 = load i8, ptr %arrayidx, align 1
  %conv = zext i8 %2 to i32
  %3 = load ptr, ptr %q, align 8
  %arrayidx2 = getelementptr inbounds i8, ptr %3, i64 1
  %4 = load i8, ptr %arrayidx2, align 1
  %conv3 = zext i8 %4 to i32
  %shl = shl i32 %conv3, 8
  %or = or i32 %conv, %shl
  %5 = load ptr, ptr %q, align 8
  %arrayidx4 = getelementptr inbounds i8, ptr %5, i64 2
  %6 = load i8, ptr %arrayidx4, align 1
  %conv5 = zext i8 %6 to i32
  %shl6 = shl i32 %conv5, 16
  %or7 = or i32 %or, %shl6
  %7 = load ptr, ptr %q, align 8
  %arrayidx8 = getelementptr inbounds i8, ptr %7, i64 3
  %8 = load i8, ptr %arrayidx8, align 1
  %conv9 = zext i8 %8 to i32
  %shl10 = shl i32 %conv9, 24
  %or11 = or i32 %or7, %shl10
  store i32 %or11, ptr %tmp, align 4
  %mP12 = getelementptr inbounds %"class.Assimp::XFileParser", ptr %this1, i32 0, i32 5
  %9 = load ptr, ptr %mP12, align 8
  %add.ptr = getelementptr inbounds i8, ptr %9, i64 4
  store ptr %add.ptr, ptr %mP12, align 8
  %10 = load i32, ptr %tmp, align 4
  ret i32 %10
}