; Function Attrs: mustprogress nofree norecurse nosync nounwind willreturn memory(read, argmem: readwrite, inaccessiblemem: none) uwtable
define hidden noundef i32 @_ZN6Assimp11XFileParser12ReadBinDWordEv(ptr nocapture noundef nonnull align 8 dereferenceable(56) %this) local_unnamed_addr #13 align 2 {
entry:
  %mP = getelementptr inbounds i8, ptr %this, i64 24
  %0 = load ptr, ptr %mP, align 8
  %1 = load i32, ptr %0, align 1
  %add.ptr = getelementptr inbounds i8, ptr %0, i64 4
  store ptr %add.ptr, ptr %mP, align 8
  ret i32 %1
}